target datalayout = "e-m:e-p270:32:32-p271:32:32-p272:64:64-i64:64-i128:128-f80:128-n8:16:32:64-S128"
target triple = "x86_64-pc-linux-gnu"

%struct.dlist_node = type { ptr, ptr }
%struct.PGPROC = type { %struct.dlist_node, ptr, ptr, i32, %struct.Latch, i32, i32, i32, i32, %struct.anon, i32, i32, i32, i8, i8, i8, i8, %struct.proclist_node, %struct.proclist_node, ptr, ptr, i32, i32, %struct.pg_atomic_uint64, i32, i8, i64, i32, %struct.dlist_node, [16 x %struct.dlist_head], %struct.XidCacheStatus, %struct.XidCache, i8, %struct.pg_atomic_uint32, i32, i32, i8, %struct.pg_atomic_uint32, i32, i32, i64, i64, %struct.LWLock, ptr, ptr, i8, i32, ptr, %struct.dlist_head, %struct.dlist_node }
%struct.Latch = type { i32, i32, i8, i32 }
%struct.anon = type { i32, i32 }
%struct.proclist_node = type { i32, i32 }
%struct.pg_atomic_uint64 = type { i64 }
%struct.XidCacheStatus = type { i8, i8 }
%struct.XidCache = type { [64 x i32] }
%struct.pg_atomic_uint32 = type { i32 }
%struct.LWLock = type { i16, %struct.pg_atomic_uint32, %struct.proclist_head }
%struct.proclist_head = type { i32, i32 }
%struct.dlist_head = type { %struct.dlist_node }

@myTempNamespace = internal global i32 0, align 4
@myTempToastNamespace = internal global i32 0, align 4
@baseSearchPathValid = internal global i8 1, align 1
@searchPathCacheValid = internal global i8 0, align 1
@myTempNamespaceSubID = internal global i32 0, align 4
@MyProc = external global ptr, align 8

; Function Attrs: nounwind uwtable
define dso_local void @AtEOXact_Namespace(i1 noundef zeroext %0, i1 noundef zeroext %1) #0 {
  %3 = alloca i8, align 1
  %4 = alloca i8, align 1
  %5 = zext i1 %0 to i8
  store i8 %5, ptr %3, align 1
  %6 = zext i1 %1 to i8
  store i8 %6, ptr %4, align 1
  %7 = load i32, ptr @myTempNamespaceSubID, align 4
  %8 = icmp ne i32 %7, 0
  br i1 %8, label %9, label %20

9:                                                ; preds = %2
  %10 = load i8, ptr %4, align 1, !range !4, !noundef !5
  %11 = trunc i8 %10 to i1
  br i1 %11, label %20, label %12

12:                                               ; preds = %9
  %13 = load i8, ptr %3, align 1, !range !4, !noundef !5
  %14 = trunc i8 %13 to i1
  br i1 %14, label %15, label %16

15:                                               ; preds = %12
  call void @before_shmem_exit(ptr noundef @RemoveTempRelationsCallback, i64 noundef 0)
  br label %19

16:                                               ; preds = %12
  store i32 0, ptr @myTempNamespace, align 4
  store i32 0, ptr @myTempToastNamespace, align 4
  store i8 0, ptr @baseSearchPathValid, align 1
  store i8 0, ptr @searchPathCacheValid, align 1
  %17 = load ptr, ptr @MyProc, align 8
  %18 = getelementptr inbounds nuw %struct.PGPROC, ptr %17, i32 0, i32 12
  store i32 0, ptr %18, align 4
  br label %19

19:                                               ; preds = %16, %15
  store i32 0, ptr @myTempNamespaceSubID, align 4
  br label %20

20:                                               ; preds = %19, %9, %2
  ret void
}