; Function Attrs: nounwind uwtable
define dso_local void @AtEOXact_Namespace(i1 noundef zeroext %0, i1 noundef zeroext %1) local_unnamed_addr #0 {
  %3 = load i32, ptr @myTempNamespaceSubID, align 4
  %.not = icmp eq i32 %3, 0
  %brmerge = or i1 %1, %.not
  br i1 %brmerge, label %10, label %4

4:                                                ; preds = %2
  br i1 %0, label %5, label %6

5:                                                ; preds = %4
  tail call void @before_shmem_exit(ptr noundef nonnull @RemoveTempRelationsCallback, i64 noundef 0) #19
  br label %9

6:                                                ; preds = %4
  store i32 0, ptr @myTempNamespace, align 4
  store i32 0, ptr @myTempToastNamespace, align 4
  store i1 true, ptr @baseSearchPathValid, align 1
  store i1 false, ptr @searchPathCacheValid, align 1
  %7 = load ptr, ptr @MyProc, align 8
  %8 = getelementptr inbounds nuw i8, ptr %7, i64 84
  store i32 0, ptr %8, align 4
  br label %9

9:                                                ; preds = %6, %5
  store i32 0, ptr @myTempNamespaceSubID, align 4
  br label %10

10:                                               ; preds = %2, %9
  ret void
}